target datalayout = "e-m:e-p270:32:32-p271:32:32-p272:64:64-i64:64-i128:128-f80:128-n8:16:32:64-S128"
target triple = "x86_64-pc-linux-gnu"

%struct.H5FL_seq_head_t = type { %struct.H5FL_blk_head_t, i64 }
%struct.H5FL_blk_head_t = type { i8, i32, i32, i64, ptr, ptr }

@H5D_init_g = external global i8, align 1
@H5_libterm_g = external global i8, align 1
@.str = private unnamed_addr constant [105 x i8] c"generated/home/dtcxzyw/WorkSpace/Projects/compilers/llvm-opt-benchmark/bench/hdf5/hdf5/src/H5Dscatgath.c\00", align 1
@H5E_DATASET_g = external global i64, align 8
@H5E_CANTGET_g = external global i64, align 8
@.str.1 = private unnamed_addr constant [31 x i8] c"can't retrieve I/O vector size\00", align 1
@H5_size_t_seq_free_list = external global %struct.H5FL_seq_head_t, align 8
@H5E_CANTALLOC_g = external global i64, align 8
@.str.2 = private unnamed_addr constant [39 x i8] c"can't allocate I/O length vector array\00", align 1
@H5_hsize_t_seq_free_list = external global %struct.H5FL_seq_head_t, align 8
@.str.3 = private unnamed_addr constant [39 x i8] c"can't allocate I/O offset vector array\00", align 1
@H5E_INTERNAL_g = external global i64, align 8
@H5E_UNSUPPORTED_g = external global i64, align 8
@.str.4 = private unnamed_addr constant [34 x i8] c"sequence length generation failed\00", align 1
@__func__.H5D__gather_mem = private unnamed_addr constant [16 x i8] c"H5D__gather_mem\00", align 1

; Function Attrs: nounwind uwtable
define i64 @H5D__gather_mem(ptr noundef %0, ptr noundef %1, i64 noundef %2, ptr noundef %3) #0 {
  %5 = alloca ptr, align 8
  %6 = alloca ptr, align 8
  %7 = alloca i64, align 8
  %8 = alloca ptr, align 8
  %9 = alloca ptr, align 8
  %10 = alloca ptr, align 8
  %11 = alloca ptr, align 8
  %12 = alloca ptr, align 8
  %13 = alloca i64, align 8
  %14 = alloca i64, align 8
  %15 = alloca i64, align 8
  %16 = alloca i64, align 8
  %17 = alloca i64, align 8
  %18 = alloca i64, align 8
  %19 = alloca i64, align 8
  %20 = alloca i8, align 1
  store ptr %0, ptr %5, align 8, !tbaa !3
  store ptr %1, ptr %6, align 8, !tbaa !7
  store i64 %2, ptr %7, align 8, !tbaa !9
  store ptr %3, ptr %8, align 8, !tbaa !3
  call void @llvm.lifetime.start.p0(i64 8, ptr %9) #8
  %21 = load ptr, ptr %5, align 8, !tbaa !3
  store ptr %21, ptr %9, align 8, !tbaa !11
  call void @llvm.lifetime.start.p0(i64 8, ptr %10) #8
  %22 = load ptr, ptr %8, align 8, !tbaa !3
  store ptr %22, ptr %10, align 8, !tbaa !11
  call void @llvm.lifetime.start.p0(i64 8, ptr %11) #8
  store ptr null, ptr %11, align 8, !tbaa !13
  call void @llvm.lifetime.start.p0(i64 8, ptr %12) #8
  store ptr null, ptr %12, align 8, !tbaa !13
  call void @llvm.lifetime.start.p0(i64 8, ptr %13) #8
  call void @llvm.lifetime.start.p0(i64 8, ptr %14) #8
  call void @llvm.lifetime.start.p0(i64 8, ptr %15) #8
  call void @llvm.lifetime.start.p0(i64 8, ptr %16) #8
  call void @llvm.lifetime.start.p0(i64 8, ptr %17) #8
  call void @llvm.lifetime.start.p0(i64 8, ptr %18) #8
  call void @llvm.lifetime.start.p0(i64 8, ptr %19) #8
  %23 = load i64, ptr %7, align 8, !tbaa !9
  store i64 %23, ptr %19, align 8, !tbaa !9
  call void @llvm.lifetime.start.p0(i64 1, ptr %20) #8
  store i8 0, ptr %20, align 1, !tbaa !17
  %24 = load i8, ptr @H5D_init_g, align 1, !tbaa !17, !range !19, !noundef !20
  %25 = trunc i8 %24 to i1
  br i1 %25, label %30, label %26

26:                                               ; preds = %4
  %27 = load i8, ptr @H5_libterm_g, align 1, !tbaa !17, !range !19, !noundef !20
  %28 = trunc i8 %27 to i1
  %29 = xor i1 %28, true
  br label %30

30:                                               ; preds = %26, %4
  %31 = phi i1 [ true, %4 ], [ %29, %26 ]
  %32 = xor i1 %31, true
  %33 = xor i1 %32, true
  %34 = zext i1 %33 to i32
  %35 = sext i32 %34 to i64
  %36 = call i64 @llvm.expect.i64(i64 %35, i64 1)
  %37 = icmp ne i64 %36, 0
  br i1 %37, label %38, label %185

38:                                               ; preds = %30
  %39 = call i32 @H5CX_get_vec_size(ptr noundef %17)
  %40 = icmp slt i32 %39, 0
  br i1 %40, label %41, label %60

41:                                               ; preds = %38
  br label %42

42:                                               ; preds = %41
  br label %43

43:                                               ; preds = %42
  br label %44

44:                                               ; preds = %43
  %45 = load i64, ptr @H5E_DATASET_g, align 8, !tbaa !9
  %46 = load i64, ptr @H5E_CANTGET_g, align 8, !tbaa !9
  %47 = call i32 (ptr, ptr, i32, i64, i64, ptr, ...) @H5E_printf_stack(ptr noundef @.str, ptr noundef @__func__.H5D__gather_mem, i32 noundef 392, i64 noundef %45, i64 noundef %46, ptr noundef @.str.1)
  br label %48

48:                                               ; preds = %44
  br label %49

49:                                               ; preds = %48
  store i8 1, ptr %20, align 1, !tbaa !17
  %50 = load i8, ptr %20, align 1, !tbaa !17, !range !19, !noundef !20
  %51 = trunc i8 %50 to i1
  %52 = zext i1 %51 to i8
  store i8 %52, ptr %20, align 1, !tbaa !17
  br label %53

53:                                               ; preds = %49
  br label %54

54:                                               ; preds = %53
  br label %55

55:                                               ; preds = %54
  store i64 0, ptr %19, align 8, !tbaa !9
  br label %172

56:                                               ; No predecessors!
  br label %57

57:                                               ; preds = %56
  br label %58

58:                                               ; preds = %57
  br label %59

59:                                               ; preds = %58
  br label %60

60:                                               ; preds = %59, %38
  %61 = load i64, ptr %17, align 8, !tbaa !9
  %62 = icmp ugt i64 %61, 1024
  br i1 %62, label %63, label %65

63:                                               ; preds = %60
  %64 = load i64, ptr %17, align 8, !tbaa !9
  store i64 %64, ptr %18, align 8, !tbaa !9
  br label %66

65:                                               ; preds = %60
  store i64 1024, ptr %18, align 8, !tbaa !9
  br label %66

66:                                               ; preds = %65, %63
  %67 = load i64, ptr %18, align 8, !tbaa !9
  %68 = call noalias ptr @H5FL_seq_malloc(ptr noundef @H5_size_t_seq_free_list, i64 noundef %67)
  store ptr %68, ptr %12, align 8, !tbaa !13
  %69 = icmp eq ptr null, %68
  br i1 %69, label %70, label %89

70:                                               ; preds = %66
  br label %71

71:                                               ; preds = %70
  br label %72

72:                                               ; preds = %71
  br label %73

73:                                               ; preds = %72
  %74 = load i64, ptr @H5E_DATASET_g, align 8, !tbaa !9
  %75 = load i64, ptr @H5E_CANTALLOC_g, align 8, !tbaa !9
  %76 = call i32 (ptr, ptr, i32, i64, i64, ptr, ...) @H5E_printf_stack(ptr noundef @.str, ptr noundef @__func__.H5D__gather_mem, i32 noundef 400, i64 noundef %74, i64 noundef %75, ptr noundef @.str.2)
  br label %77

77:                                               ; preds = %73
  br label %78

78:                                               ; preds = %77
  store i8 1, ptr %20, align 1, !tbaa !17
  %79 = load i8, ptr %20, align 1, !tbaa !17, !range !19, !noundef !20
  %80 = trunc i8 %79 to i1
  %81 = zext i1 %80 to i8
  store i8 %81, ptr %20, align 1, !tbaa !17
  br label %82

82:                                               ; preds = %78
  br label %83

83:                                               ; preds = %82
  br label %84

84:                                               ; preds = %83
  store i64 0, ptr %19, align 8, !tbaa !9
  br label %172

85:                                               ; No predecessors!
  br label %86

86:                                               ; preds = %85
  br label %87

87:                                               ; preds = %86
  br label %88

88:                                               ; preds = %87
  br label %89

89:                                               ; preds = %88, %66
  %90 = load i64, ptr %18, align 8, !tbaa !9
  %91 = call noalias ptr @H5FL_seq_malloc(ptr noundef @H5_hsize_t_seq_free_list, i64 noundef %90)
  store ptr %91, ptr %11, align 8, !tbaa !13
  %92 = icmp eq ptr null, %91
  br i1 %92, label %93, label %112

93:                                               ; preds = %89
  br label %94

94:                                               ; preds = %93
  br label %95

95:                                               ; preds = %94
  br label %96

96:                                               ; preds = %95
  %97 = load i64, ptr @H5E_DATASET_g, align 8, !tbaa !9
  %98 = load i64, ptr @H5E_CANTALLOC_g, align 8, !tbaa !9
  %99 = call i32 (ptr, ptr, i32, i64, i64, ptr, ...) @H5E_printf_stack(ptr noundef @.str, ptr noundef @__func__.H5D__gather_mem, i32 noundef 402, i64 noundef %97, i64 noundef %98, ptr noundef @.str.3)
  br label %100

100:                                              ; preds = %96
  br label %101

101:                                              ; preds = %100
  store i8 1, ptr %20, align 1, !tbaa !17
  %102 = load i8, ptr %20, align 1, !tbaa !17, !range !19, !noundef !20
  %103 = trunc i8 %102 to i1
  %104 = zext i1 %103 to i8
  store i8 %104, ptr %20, align 1, !tbaa !17
  br label %105

105:                                              ; preds = %101
  br label %106

106:                                              ; preds = %105
  br label %107

107:                                              ; preds = %106
  store i64 0, ptr %19, align 8, !tbaa !9
  br label %172

108:                                              ; No predecessors!
  br label %109

109:                                              ; preds = %108
  br label %110

110:                                              ; preds = %109
  br label %111

111:                                              ; preds = %110
  br label %112

112:                                              ; preds = %111, %89
  br label %113

113:                                              ; preds = %167, %112
  %114 = load i64, ptr %7, align 8, !tbaa !9
  %115 = icmp ugt i64 %114, 0
  br i1 %115, label %116, label %171

116:                                              ; preds = %113
  %117 = load ptr, ptr %6, align 8, !tbaa !7
  %118 = load i64, ptr %18, align 8, !tbaa !9
  %119 = load i64, ptr %7, align 8, !tbaa !9
  %120 = load ptr, ptr %11, align 8, !tbaa !13
  %121 = load ptr, ptr %12, align 8, !tbaa !13
  %122 = call i32 @H5S_select_iter_get_seq_list(ptr noundef %117, i64 noundef %118, i64 noundef %119, ptr noundef %14, ptr noundef %16, ptr noundef %120, ptr noundef %121)
  %123 = icmp slt i32 %122, 0
  br i1 %123, label %124, label %143

124:                                              ; preds = %116
  br label %125

125:                                              ; preds = %124
  br label %126

126:                                              ; preds = %125
  br label %127

127:                                              ; preds = %126
  %128 = load i64, ptr @H5E_INTERNAL_g, align 8, !tbaa !9
  %129 = load i64, ptr @H5E_UNSUPPORTED_g, align 8, !tbaa !9
  %130 = call i32 (ptr, ptr, i32, i64, i64, ptr, ...) @H5E_printf_stack(ptr noundef @.str, ptr noundef @__func__.H5D__gather_mem, i32 noundef 408, i64 noundef %128, i64 noundef %129, ptr noundef @.str.4)
  br label %131

131:                                              ; preds = %127
  br label %132

132:                                              ; preds = %131
  store i8 1, ptr %20, align 1, !tbaa !17
  %133 = load i8, ptr %20, align 1, !tbaa !17, !range !19, !noundef !20
  %134 = trunc i8 %133 to i1
  %135 = zext i1 %134 to i8
  store i8 %135, ptr %20, align 1, !tbaa !17
  br label %136

136:                                              ; preds = %132
  br label %137

137:                                              ; preds = %136
  br label %138

138:                                              ; preds = %137
  store i64 0, ptr %19, align 8, !tbaa !9
  br label %172

139:                                              ; No predecessors!
  br label %140

140:                                              ; preds = %139
  br label %141

141:                                              ; preds = %140
  br label %142

142:                                              ; preds = %141
  br label %143

143:                                              ; preds = %142, %116
  store i64 0, ptr %15, align 8, !tbaa !9
  br label %144

144:                                              ; preds = %164, %143
  %145 = load i64, ptr %15, align 8, !tbaa !9
  %146 = load i64, ptr %14, align 8, !tbaa !9
  %147 = icmp ult i64 %145, %146
  br i1 %147, label %148, label %167

148:                                              ; preds = %144
  %149 = load ptr, ptr %12, align 8, !tbaa !13
  %150 = load i64, ptr %15, align 8, !tbaa !9
  %151 = getelementptr inbounds nuw i64, ptr %149, i64 %150
  %152 = load i64, ptr %151, align 8, !tbaa !9
  store i64 %152, ptr %13, align 8, !tbaa !9
  %153 = load ptr, ptr %10, align 8, !tbaa !11
  %154 = load ptr, ptr %9, align 8, !tbaa !11
  %155 = load ptr, ptr %11, align 8, !tbaa !13
  %156 = load i64, ptr %15, align 8, !tbaa !9
  %157 = getelementptr inbounds nuw i64, ptr %155, i64 %156
  %158 = load i64, ptr %157, align 8, !tbaa !9
  %159 = getelementptr inbounds nuw i8, ptr %154, i64 %158
  %160 = load i64, ptr %13, align 8, !tbaa !9
  call void @llvm.memcpy.p0.p0.i64(ptr align 1 %153, ptr align 1 %159, i64 %160, i1 false)
  %161 = load i64, ptr %13, align 8, !tbaa !9
  %162 = load ptr, ptr %10, align 8, !tbaa !11
  %163 = getelementptr inbounds nuw i8, ptr %162, i64 %161
  store ptr %163, ptr %10, align 8, !tbaa !11
  br label %164

164:                                              ; preds = %148
  %165 = load i64, ptr %15, align 8, !tbaa !9
  %166 = add i64 %165, 1
  store i64 %166, ptr %15, align 8, !tbaa !9
  br label %144, !llvm.loop !24

167:                                              ; preds = %144
  %168 = load i64, ptr %16, align 8, !tbaa !9
  %169 = load i64, ptr %7, align 8, !tbaa !9
  %170 = sub i64 %169, %168
  store i64 %170, ptr %7, align 8, !tbaa !9
  br label %113, !llvm.loop !25

171:                                              ; preds = %113
  br label %172

172:                                              ; preds = %171, %138, %107, %84, %55
  %173 = load ptr, ptr %12, align 8, !tbaa !13
  %174 = icmp ne ptr %173, null
  br i1 %174, label %175, label %178

175:                                              ; preds = %172
  %176 = load ptr, ptr %12, align 8, !tbaa !13
  %177 = call ptr @H5FL_seq_free(ptr noundef @H5_size_t_seq_free_list, ptr noundef %176)
  store ptr %177, ptr %12, align 8, !tbaa !13
  br label %178

178:                                              ; preds = %175, %172
  %179 = load ptr, ptr %11, align 8, !tbaa !13
  %180 = icmp ne ptr %179, null
  br i1 %180, label %181, label %184

181:                                              ; preds = %178
  %182 = load ptr, ptr %11, align 8, !tbaa !13
  %183 = call ptr @H5FL_seq_free(ptr noundef @H5_hsize_t_seq_free_list, ptr noundef %182)
  store ptr %183, ptr %11, align 8, !tbaa !13
  br label %184

184:                                              ; preds = %181, %178
  br label %185

185:                                              ; preds = %184, %30
  %186 = load i64, ptr %19, align 8, !tbaa !9
  call void @llvm.lifetime.end.p0(i64 1, ptr %20) #8
  call void @llvm.lifetime.end.p0(i64 8, ptr %19) #8
  call void @llvm.lifetime.end.p0(i64 8, ptr %18) #8
  call void @llvm.lifetime.end.p0(i64 8, ptr %17) #8
  call void @llvm.lifetime.end.p0(i64 8, ptr %16) #8
  call void @llvm.lifetime.end.p0(i64 8, ptr %15) #8
  call void @llvm.lifetime.end.p0(i64 8, ptr %14) #8
  call void @llvm.lifetime.end.p0(i64 8, ptr %13) #8
  call void @llvm.lifetime.end.p0(i64 8, ptr %12) #8
  call void @llvm.lifetime.end.p0(i64 8, ptr %11) #8
  call void @llvm.lifetime.end.p0(i64 8, ptr %10) #8
  call void @llvm.lifetime.end.p0(i64 8, ptr %9) #8
  ret i64 %186
}