; Function Attrs: nounwind uwtable
define i64 @H5D__gather_mem(ptr noundef readonly captures(none) %0, ptr noundef %1, i64 noundef %2, ptr noundef writeonly captures(none) %3) local_unnamed_addr #0 {
  %5 = alloca i64, align 8
  %6 = alloca i64, align 8
  %7 = alloca i64, align 8
  call void @llvm.lifetime.start.p0(i64 8, ptr nonnull %5) #8
  call void @llvm.lifetime.start.p0(i64 8, ptr nonnull %6) #8
  call void @llvm.lifetime.start.p0(i64 8, ptr nonnull %7) #8
  %8 = load i8, ptr @H5D_init_g, align 1, !tbaa !3, !range !7, !noundef !8
  %9 = trunc nuw i8 %8 to i1
  %10 = load i8, ptr @H5_libterm_g, align 1, !range !7
  %11 = trunc nuw i8 %10 to i1
  %12 = xor i1 %11, true
  %13 = select i1 %9, i1 true, i1 %12
  br i1 %13, label %14, label %.thread59, !prof !9

14:                                               ; preds = %4
  %15 = call i32 @H5CX_get_vec_size(ptr noundef nonnull %7) #8
  %16 = icmp slt i32 %15, 0
  br i1 %16, label %17, label %21

17:                                               ; preds = %14
  %18 = load i64, ptr @H5E_DATASET_g, align 8, !tbaa !10
  %19 = load i64, ptr @H5E_CANTGET_g, align 8, !tbaa !10
  %20 = call i32 (ptr, ptr, i32, i64, i64, ptr, ...) @H5E_printf_stack(ptr noundef nonnull @.str, ptr noundef nonnull @__func__.H5D__gather_mem, i32 noundef 392, i64 noundef %18, i64 noundef %19, ptr noundef nonnull @.str.1) #8
  br label %.thread59

21:                                               ; preds = %14
  %22 = load i64, ptr %7, align 8, !tbaa !10
  %. = call i64 @llvm.umax.i64(i64 %22, i64 1024)
  %23 = call noalias ptr @H5FL_seq_malloc(ptr noundef nonnull @H5_size_t_seq_free_list, i64 noundef %.) #8
  %24 = icmp eq ptr %23, null
  br i1 %24, label %25, label %29

25:                                               ; preds = %21
  %26 = load i64, ptr @H5E_DATASET_g, align 8, !tbaa !10
  %27 = load i64, ptr @H5E_CANTALLOC_g, align 8, !tbaa !10
  %28 = call i32 (ptr, ptr, i32, i64, i64, ptr, ...) @H5E_printf_stack(ptr noundef nonnull @.str, ptr noundef nonnull @__func__.H5D__gather_mem, i32 noundef 400, i64 noundef %26, i64 noundef %27, ptr noundef nonnull @.str.2) #8
  br label %.thread59

29:                                               ; preds = %21
  %30 = call noalias ptr @H5FL_seq_malloc(ptr noundef nonnull @H5_hsize_t_seq_free_list, i64 noundef %.) #8
  %31 = icmp eq ptr %30, null
  br i1 %31, label %.thread51.thread76, label %.preheader63

.preheader63:                                     ; preds = %29
  %.not66 = icmp eq i64 %2, 0
  br i1 %.not66, label %.thread51.thread, label %.lr.ph69

.thread51.thread76:                               ; preds = %29
  %32 = load i64, ptr @H5E_DATASET_g, align 8, !tbaa !10
  %33 = load i64, ptr @H5E_CANTALLOC_g, align 8, !tbaa !10
  %34 = call i32 (ptr, ptr, i32, i64, i64, ptr, ...) @H5E_printf_stack(ptr noundef nonnull @.str, ptr noundef nonnull @__func__.H5D__gather_mem, i32 noundef 402, i64 noundef %32, i64 noundef %33, ptr noundef nonnull @.str.3) #8
  %35 = call ptr @H5FL_seq_free(ptr noundef nonnull @H5_size_t_seq_free_list, ptr noundef nonnull %23) #8
  br label %.thread59

.lr.ph69:                                         ; preds = %.preheader63, %._crit_edge
  %.03368 = phi i64 [ %53, %._crit_edge ], [ %2, %.preheader63 ]
  %.03667 = phi ptr [ %.137.lcssa, %._crit_edge ], [ %3, %.preheader63 ]
  %36 = call i32 @H5S_select_iter_get_seq_list(ptr noundef %1, i64 noundef %., i64 noundef %.03368, ptr noundef nonnull %5, ptr noundef nonnull %6, ptr noundef nonnull %30, ptr noundef nonnull %23) #8
  %37 = icmp slt i32 %36, 0
  br i1 %37, label %39, label %.preheader

.preheader:                                       ; preds = %.lr.ph69
  %38 = load i64, ptr %5, align 8, !tbaa !10
  %.not70 = icmp eq i64 %38, 0
  br i1 %.not70, label %._crit_edge, label %.lr.ph

39:                                               ; preds = %.lr.ph69
  %40 = load i64, ptr @H5E_INTERNAL_g, align 8, !tbaa !10
  %41 = load i64, ptr @H5E_UNSUPPORTED_g, align 8, !tbaa !10
  %42 = call i32 (ptr, ptr, i32, i64, i64, ptr, ...) @H5E_printf_stack(ptr noundef nonnull @.str, ptr noundef nonnull @__func__.H5D__gather_mem, i32 noundef 408, i64 noundef %40, i64 noundef %41, ptr noundef nonnull @.str.4) #8
  br label %.thread51.thread

.lr.ph:                                           ; preds = %.preheader, %.lr.ph
  %.03265 = phi i64 [ %49, %.lr.ph ], [ 0, %.preheader ]
  %.13764 = phi ptr [ %48, %.lr.ph ], [ %.03667, %.preheader ]
  %43 = getelementptr inbounds nuw i64, ptr %23, i64 %.03265
  %44 = load i64, ptr %43, align 8, !tbaa !10
  %45 = getelementptr inbounds nuw i64, ptr %30, i64 %.03265
  %46 = load i64, ptr %45, align 8, !tbaa !10
  %47 = getelementptr inbounds nuw i8, ptr %0, i64 %46
  call void @llvm.memcpy.p0.p0.i64(ptr align 1 %.13764, ptr align 1 %47, i64 %44, i1 false)
  %48 = getelementptr inbounds nuw i8, ptr %.13764, i64 %44
  %49 = add nuw i64 %.03265, 1
  %50 = load i64, ptr %5, align 8, !tbaa !10
  %51 = icmp ult i64 %49, %50
  br i1 %51, label %.lr.ph, label %._crit_edge, !llvm.loop !15

._crit_edge:                                      ; preds = %.lr.ph, %.preheader
  %.137.lcssa = phi ptr [ %.03667, %.preheader ], [ %48, %.lr.ph ]
  %52 = load i64, ptr %6, align 8, !tbaa !10
  %53 = sub i64 %.03368, %52
  %.not = icmp eq i64 %53, 0
  br i1 %.not, label %.thread51.thread, label %.lr.ph69, !llvm.loop !16

.thread51.thread:                                 ; preds = %._crit_edge, %.preheader63, %39
  %.15874 = phi i64 [ 0, %39 ], [ 0, %.preheader63 ], [ %2, %._crit_edge ]
  %54 = call ptr @H5FL_seq_free(ptr noundef nonnull @H5_size_t_seq_free_list, ptr noundef nonnull %23) #8
  %55 = call ptr @H5FL_seq_free(ptr noundef nonnull @H5_hsize_t_seq_free_list, ptr noundef nonnull %30) #8
  br label %.thread59

.thread59:                                        ; preds = %.thread51.thread76, %17, %25, %.thread51.thread, %4
  %.0 = phi i64 [ %.15874, %.thread51.thread ], [ %2, %4 ], [ 0, %25 ], [ 0, %17 ], [ 0, %.thread51.thread76 ]
  call void @llvm.lifetime.end.p0(i64 8, ptr nonnull %7) #8
  call void @llvm.lifetime.end.p0(i64 8, ptr nonnull %6) #8
  call void @llvm.lifetime.end.p0(i64 8, ptr nonnull %5) #8
  ret i64 %.0
}